; Function Attrs: nofree norecurse nosync nounwind memory(read, inaccessiblemem: none) uwtable
define i32 @Acb_NtkCountPiBuffers(ptr noundef readonly captures(none) %0, ptr noundef readonly captures(none) %1) local_unnamed_addr #3 {
  %3 = getelementptr i8, ptr %1, i64 4
  %.val9 = load i32, ptr %3, align 4, !tbaa !27
  %4 = icmp sgt i32 %.val9, 0
  br i1 %4, label %.lr.ph, label %.critedge

.lr.ph:                                           ; preds = %2
  %5 = getelementptr i8, ptr %1, i64 8
  %.val = load ptr, ptr %5, align 8, !tbaa !21
  %6 = getelementptr i8, ptr %0, i64 120
  %.val.i = load ptr, ptr %6, align 8, !tbaa !23
  %7 = getelementptr i8, ptr %0, i64 136
  %8 = getelementptr i8, ptr %0, i64 152
  %wide.trip.count = zext nneg i32 %.val9 to i64
  br label %9

9:                                                ; preds = %.lr.ph, %Acb_NtkIsPiBuffers.exit
  %indvars.iv = phi i64 [ 0, %.lr.ph ], [ %indvars.iv.next, %Acb_NtkIsPiBuffers.exit ]
  %.011 = phi i32 [ 0, %.lr.ph ], [ %27, %Acb_NtkIsPiBuffers.exit ]
  %10 = getelementptr inbounds nuw i32, ptr %.val, i64 %indvars.iv
  %11 = load i32, ptr %10, align 4, !tbaa !22
  %12 = sext i32 %11 to i64
  %13 = getelementptr inbounds i8, ptr %.val.i, i64 %12
  %14 = load i8, ptr %13, align 1, !tbaa !24
  %.not13.i = icmp eq i8 %14, 3
  br i1 %.not13.i, label %Acb_NtkIsPiBuffers.exit, label %.lr.ph.i

.lr.ph.i:                                         ; preds = %9
  %.val8.i = load ptr, ptr %7, align 8, !tbaa !21
  %.val9.i = load ptr, ptr %8, align 8, !tbaa !21
  br label %15

15:                                               ; preds = %tailrecurse.i, %.lr.ph.i
  %16 = phi i64 [ %12, %.lr.ph.i ], [ %24, %tailrecurse.i ]
  %17 = getelementptr inbounds i32, ptr %.val8.i, i64 %16
  %18 = load i32, ptr %17, align 4, !tbaa !22
  %19 = sext i32 %18 to i64
  %20 = getelementptr inbounds i32, ptr %.val9.i, i64 %19
  %21 = load i32, ptr %20, align 4, !tbaa !22
  %.not7.i = icmp eq i32 %21, 1
  br i1 %.not7.i, label %tailrecurse.i, label %Acb_NtkIsPiBuffers.exit

tailrecurse.i:                                    ; preds = %15
  %22 = getelementptr inbounds nuw i8, ptr %20, i64 4
  %23 = load i32, ptr %22, align 4, !tbaa !22
  %24 = sext i32 %23 to i64
  %25 = getelementptr inbounds i8, ptr %.val.i, i64 %24
  %26 = load i8, ptr %25, align 1, !tbaa !24
  %.not.i = icmp eq i8 %26, 3
  br i1 %.not.i, label %Acb_NtkIsPiBuffers.exit, label %15

Acb_NtkIsPiBuffers.exit:                          ; preds = %15, %tailrecurse.i, %9
  %.0.i = phi i32 [ 1, %9 ], [ 1, %tailrecurse.i ], [ 0, %15 ]
  %27 = add nuw nsw i32 %.0.i, %.011
  %indvars.iv.next = add nuw nsw i64 %indvars.iv, 1
  %exitcond.not = icmp eq i64 %indvars.iv.next, %wide.trip.count
  br i1 %exitcond.not, label %.critedge, label %9, !llvm.loop !42

.critedge:                                        ; preds = %Acb_NtkIsPiBuffers.exit, %2
  %.0.lcssa = phi i32 [ 0, %2 ], [ %27, %Acb_NtkIsPiBuffers.exit ]
  ret i32 %.0.lcssa
}